; Function Attrs: nounwind uwtable
define internal noalias ptr @epki2pki_newctx(ptr noundef %0) #0 {
  %2 = tail call noalias ptr @CRYPTO_zalloc(i64 noundef 264, ptr noundef nonnull @.str, i32 noundef 42) #5
  %.not = icmp eq ptr %2, null
  br i1 %.not, label %4, label %3

3:                                                ; preds = %1
  store ptr %0, ptr %2, align 8, !tbaa !3
  br label %4

4:                                                ; preds = %3, %1
  ret ptr %2
}